; Function Attrs: nounwind uwtable
define hidden void @zim_XMLReader_getParserProperty(ptr nocapture noundef readonly %0, ptr nocapture noundef writeonly %1) #0 {
  %3 = alloca i64, align 8
  %4 = getelementptr inbounds i8, ptr %0, i64 44
  %5 = load i32, ptr %4, align 4
  %6 = call i32 (i32, ptr, ...) @zend_parse_parameters(i32 noundef %5, ptr noundef nonnull @.str.7, ptr noundef nonnull %3) #11
  %7 = icmp eq i32 %6, -1
  br i1 %7, label %8, label %11

8:                                                ; preds = %2
  %9 = load ptr, ptr getelementptr inbounds (%struct._zend_executor_globals, ptr @executor_globals, i64 0, i32 50), align 8
  %10 = icmp ne ptr %9, null
  call void @llvm.assume(i1 %10)
  br label %30

11:                                               ; preds = %2
  %12 = getelementptr inbounds i8, ptr %0, i64 32
  %13 = load ptr, ptr %12, align 8
  %14 = getelementptr inbounds i8, ptr %13, i64 -32
  %15 = load ptr, ptr %14, align 8
  %.not10 = icmp eq ptr %15, null
  br i1 %.not10, label %16, label %19

16:                                               ; preds = %11
  call void (ptr, ptr, ...) @zend_throw_error(ptr noundef null, ptr noundef nonnull @.str.10) #11
  %17 = load ptr, ptr getelementptr inbounds (%struct._zend_executor_globals, ptr @executor_globals, i64 0, i32 50), align 8
  %18 = icmp ne ptr %17, null
  call void @llvm.assume(i1 %18)
  br label %30

19:                                               ; preds = %11
  %20 = load i64, ptr %3, align 8
  %21 = trunc i64 %20 to i32
  %22 = call i32 @xmlTextReaderGetParserProp(ptr noundef nonnull %15, i32 noundef %21) #11
  %23 = icmp eq i32 %22, -1
  br i1 %23, label %24, label %27

24:                                               ; preds = %19
  call void (i32, ptr, ...) @zend_argument_value_error(i32 noundef 1, ptr noundef nonnull @.str.11) #11
  %25 = load ptr, ptr getelementptr inbounds (%struct._zend_executor_globals, ptr @executor_globals, i64 0, i32 50), align 8
  %26 = icmp ne ptr %25, null
  call void @llvm.assume(i1 %26)
  br label %30

27:                                               ; preds = %19
  %.not11 = icmp eq i32 %22, 0
  %28 = select i1 %.not11, i32 2, i32 3
  %29 = getelementptr inbounds i8, ptr %1, i64 8
  store i32 %28, ptr %29, align 8
  br label %30

30:                                               ; preds = %27, %24, %16, %8
  ret void
}